target datalayout = "e-m:e-p270:32:32-p271:32:32-p272:64:64-i64:64-i128:128-f80:128-n8:16:32:64-S128"
target triple = "x86_64-unknown-linux-gnu"

%struct.b2Vec2 = type { float, float }
%struct.b2JointUserData = type { i64 }
%struct.b2DistanceJointDef = type { %struct.b2JointDef.base, %struct.b2Vec2, %struct.b2Vec2, float, float, float, float, float }
%struct.b2JointDef.base = type <{ i32, [4 x i8], %struct.b2JointUserData, ptr, ptr, i8 }>
%class.b2DistanceJoint = type <{ %class.b2Joint, float, float, float, float, float, float, %struct.b2Vec2, %struct.b2Vec2, float, float, float, float, i32, i32, %struct.b2Vec2, %struct.b2Vec2, %struct.b2Vec2, %struct.b2Vec2, %struct.b2Vec2, float, float, float, float, float, float, float, [4 x i8] }>
%class.b2Joint = type { ptr, i32, ptr, ptr, %struct.b2JointEdge, %struct.b2JointEdge, ptr, ptr, i32, i8, i8, %struct.b2JointUserData }
%struct.b2JointEdge = type { ptr, ptr, ptr, ptr }

; Function Attrs: mustprogress nounwind uwtable
define linkonce_odr hidden void @_ZN7b2JointD2Ev(ptr noundef nonnull align 8 dereferenceable(128) %this) unnamed_addr #2 comdat align 2 {
entry:
  %this.addr = alloca ptr, align 8
  store ptr %this, ptr %this.addr, align 8
  ret void
}

; Function Attrs: mustprogress nounwind uwtable
define linkonce_odr hidden noundef float @_Z5b2MaxIfET_S0_S0_(float noundef %a, float noundef %b) #2 comdat {
entry:
  %a.addr = alloca float, align 4
  %b.addr = alloca float, align 4
  store float %a, ptr %a.addr, align 4
  store float %b, ptr %b.addr, align 4
  %0 = load float, ptr %a.addr, align 4
  %1 = load float, ptr %b.addr, align 4
  %cmp = fcmp ogt float %0, %1
  br i1 %cmp, label %cond.true, label %cond.false

cond.true:                                        ; preds = %entry
  %2 = load float, ptr %a.addr, align 4
  br label %cond.end

cond.false:                                       ; preds = %entry
  %3 = load float, ptr %b.addr, align 4
  br label %cond.end

cond.end:                                         ; preds = %cond.false, %cond.true
  %cond = phi float [ %2, %cond.true ], [ %3, %cond.false ]
  ret float %cond
}

; Function Attrs: mustprogress uwtable
define void @_ZN15b2DistanceJointC2EPK18b2DistanceJointDef(ptr noundef nonnull align 8 dereferenceable(260) %this, ptr noundef %def) unnamed_addr #3 align 2 personality ptr @__gxx_personality_v0 {
entry:
  %this.addr = alloca ptr, align 8
  %def.addr = alloca ptr, align 8
  %exn.slot = alloca ptr, align 8
  %ehselector.slot = alloca i32, align 4
  store ptr %this, ptr %this.addr, align 8
  store ptr %def, ptr %def.addr, align 8
  %this1 = load ptr, ptr %this.addr, align 8
  %0 = load ptr, ptr %def.addr, align 8
  call void @_ZN7b2JointC2EPK10b2JointDef(ptr noundef nonnull align 8 dereferenceable(128) %this1, ptr noundef %0)
  store ptr getelementptr inbounds ({ [14 x ptr] }, ptr @_ZTV15b2DistanceJoint, i32 0, i32 0, i32 2), ptr %this1, align 8
  %1 = load ptr, ptr %def.addr, align 8
  %localAnchorA = getelementptr inbounds %struct.b2DistanceJointDef, ptr %1, i32 0, i32 1
  %m_localAnchorA2 = getelementptr inbounds %class.b2DistanceJoint, ptr %this1, i32 0, i32 7
  call void @llvm.memcpy.p0.p0.i64(ptr align 8 %m_localAnchorA2, ptr align 4 %localAnchorA, i64 8, i1 false)
  %2 = load ptr, ptr %def.addr, align 8
  %localAnchorB = getelementptr inbounds %struct.b2DistanceJointDef, ptr %2, i32 0, i32 2
  %m_localAnchorB3 = getelementptr inbounds %class.b2DistanceJoint, ptr %this1, i32 0, i32 8
  call void @llvm.memcpy.p0.p0.i64(ptr align 8 %m_localAnchorB3, ptr align 4 %localAnchorB, i64 8, i1 false)
  %3 = load ptr, ptr %def.addr, align 8
  %length = getelementptr inbounds %struct.b2DistanceJointDef, ptr %3, i32 0, i32 3
  %4 = load float, ptr %length, align 4
  %call = invoke noundef float @_Z5b2MaxIfET_S0_S0_(float noundef %4, float noundef 0x3F747AE140000000)
          to label %invoke.cont unwind label %lpad

invoke.cont:                                      ; preds = %entry
  %m_length = getelementptr inbounds %class.b2DistanceJoint, ptr %this1, i32 0, i32 4
  store float %call, ptr %m_length, align 4
  %5 = load ptr, ptr %def.addr, align 8
  %minLength = getelementptr inbounds %struct.b2DistanceJointDef, ptr %5, i32 0, i32 4
  %6 = load float, ptr %minLength, align 8
  %call5 = invoke noundef float @_Z5b2MaxIfET_S0_S0_(float noundef %6, float noundef 0x3F747AE140000000)
          to label %invoke.cont4 unwind label %lpad

invoke.cont4:                                     ; preds = %invoke.cont
  %m_minLength = getelementptr inbounds %class.b2DistanceJoint, ptr %this1, i32 0, i32 5
  store float %call5, ptr %m_minLength, align 8
  %7 = load ptr, ptr %def.addr, align 8
  %maxLength = getelementptr inbounds %struct.b2DistanceJointDef, ptr %7, i32 0, i32 5
  %8 = load float, ptr %maxLength, align 4
  %m_minLength6 = getelementptr inbounds %class.b2DistanceJoint, ptr %this1, i32 0, i32 5
  %9 = load float, ptr %m_minLength6, align 8
  %call8 = invoke noundef float @_Z5b2MaxIfET_S0_S0_(float noundef %8, float noundef %9)
          to label %invoke.cont7 unwind label %lpad

invoke.cont7:                                     ; preds = %invoke.cont4
  %m_maxLength = getelementptr inbounds %class.b2DistanceJoint, ptr %this1, i32 0, i32 6
  store float %call8, ptr %m_maxLength, align 4
  %10 = load ptr, ptr %def.addr, align 8
  %stiffness = getelementptr inbounds %struct.b2DistanceJointDef, ptr %10, i32 0, i32 6
  %11 = load float, ptr %stiffness, align 8
  %m_stiffness = getelementptr inbounds %class.b2DistanceJoint, ptr %this1, i32 0, i32 1
  store float %11, ptr %m_stiffness, align 8
  %12 = load ptr, ptr %def.addr, align 8
  %damping = getelementptr inbounds %struct.b2DistanceJointDef, ptr %12, i32 0, i32 7
  %13 = load float, ptr %damping, align 4
  %m_damping = getelementptr inbounds %class.b2DistanceJoint, ptr %this1, i32 0, i32 2
  store float %13, ptr %m_damping, align 4
  %m_gamma = getelementptr inbounds %class.b2DistanceJoint, ptr %this1, i32 0, i32 9
  store float 0.000000e+00, ptr %m_gamma, align 8
  %m_bias = getelementptr inbounds %class.b2DistanceJoint, ptr %this1, i32 0, i32 3
  store float 0.000000e+00, ptr %m_bias, align 8
  %m_impulse = getelementptr inbounds %class.b2DistanceJoint, ptr %this1, i32 0, i32 10
  store float 0.000000e+00, ptr %m_impulse, align 4
  %m_lowerImpulse = getelementptr inbounds %class.b2DistanceJoint, ptr %this1, i32 0, i32 11
  store float 0.000000e+00, ptr %m_lowerImpulse, align 8
  %m_upperImpulse = getelementptr inbounds %class.b2DistanceJoint, ptr %this1, i32 0, i32 12
  store float 0.000000e+00, ptr %m_upperImpulse, align 4
  %m_currentLength = getelementptr inbounds %class.b2DistanceJoint, ptr %this1, i32 0, i32 20
  store float 0.000000e+00, ptr %m_currentLength, align 8
  ret void

lpad:                                             ; preds = %invoke.cont4, %invoke.cont, %entry
  %14 = landingpad { ptr, i32 }
          cleanup
  %15 = extractvalue { ptr, i32 } %14, 0
  store ptr %15, ptr %exn.slot, align 8
  %16 = extractvalue { ptr, i32 } %14, 1
  store i32 %16, ptr %ehselector.slot, align 4
  call void @_ZN7b2JointD2Ev(ptr noundef nonnull align 8 dereferenceable(128) %this1) #8
  br label %eh.resume

eh.resume:                                        ; preds = %lpad
  %exn = load ptr, ptr %exn.slot, align 8
  %sel = load i32, ptr %ehselector.slot, align 4
  %lpad.val = insertvalue { ptr, i32 } poison, ptr %exn, 0
  %lpad.val9 = insertvalue { ptr, i32 } %lpad.val, i32 %sel, 1
  resume { ptr, i32 } %lpad.val9
}