; Function Attrs: mustprogress uwtable
define void @_ZN15b2DistanceJointC2EPK18b2DistanceJointDef(ptr noundef nonnull align 8 dereferenceable(260) %this, ptr noundef %def) unnamed_addr #1 align 2 personality ptr @__gxx_personality_v0 {
entry:
  tail call void @_ZN7b2JointC2EPK10b2JointDef(ptr noundef nonnull align 8 dereferenceable(128) %this, ptr noundef %def)
  store ptr getelementptr inbounds ({ [14 x ptr] }, ptr @_ZTV15b2DistanceJoint, i64 0, i32 0, i64 2), ptr %this, align 8
  %localAnchorA = getelementptr inbounds i8, ptr %def, i64 36
  %m_localAnchorA2 = getelementptr inbounds i8, ptr %this, i64 152
  %0 = load i64, ptr %localAnchorA, align 4
  store i64 %0, ptr %m_localAnchorA2, align 8
  %localAnchorB = getelementptr inbounds i8, ptr %def, i64 44
  %m_localAnchorB3 = getelementptr inbounds i8, ptr %this, i64 160
  %1 = load i64, ptr %localAnchorB, align 4
  store i64 %1, ptr %m_localAnchorB3, align 8
  %length = getelementptr inbounds i8, ptr %def, i64 52
  %2 = load float, ptr %length, align 4
  %cmp.i = fcmp ogt float %2, 0x3F747AE140000000
  %cond.i = select i1 %cmp.i, float %2, float 0x3F747AE140000000
  %m_length = getelementptr inbounds i8, ptr %this, i64 140
  store float %cond.i, ptr %m_length, align 4
  %minLength = getelementptr inbounds i8, ptr %def, i64 56
  %3 = load float, ptr %minLength, align 8
  %cmp.i8 = fcmp ogt float %3, 0x3F747AE140000000
  %cond.i9 = select i1 %cmp.i8, float %3, float 0x3F747AE140000000
  %m_minLength = getelementptr inbounds i8, ptr %this, i64 144
  store float %cond.i9, ptr %m_minLength, align 8
  %maxLength = getelementptr inbounds i8, ptr %def, i64 60
  %4 = load float, ptr %maxLength, align 4
  %cmp.i10 = fcmp ogt float %4, %cond.i9
  %cond.i11 = select i1 %cmp.i10, float %4, float %cond.i9
  %m_maxLength = getelementptr inbounds i8, ptr %this, i64 148
  store float %cond.i11, ptr %m_maxLength, align 4
  %stiffness = getelementptr inbounds i8, ptr %def, i64 64
  %5 = load float, ptr %stiffness, align 8
  %m_stiffness = getelementptr inbounds i8, ptr %this, i64 128
  store float %5, ptr %m_stiffness, align 8
  %damping = getelementptr inbounds i8, ptr %def, i64 68
  %6 = load float, ptr %damping, align 4
  %m_damping = getelementptr inbounds i8, ptr %this, i64 132
  store float %6, ptr %m_damping, align 4
  %m_gamma = getelementptr inbounds i8, ptr %this, i64 168
  %m_bias = getelementptr inbounds i8, ptr %this, i64 136
  store float 0.000000e+00, ptr %m_bias, align 8
  %m_currentLength = getelementptr inbounds i8, ptr %this, i64 232
  store float 0.000000e+00, ptr %m_currentLength, align 8
  tail call void @llvm.memset.p0.i64(ptr noundef nonnull align 8 dereferenceable(16) %m_gamma, i8 0, i64 16, i1 false)
  ret void
}